target datalayout = "e-m:e-p270:32:32-p271:32:32-p272:64:64-i64:64-i128:128-f80:128-n8:16:32:64-S128"
target triple = "x86_64-pc-linux-gnu"

%struct.Agobj_s = type { %struct.Agtag_s, ptr }
%struct.Agtag_s = type { i32, i64 }
%struct.Agrec_s = type { ptr, ptr }
%struct.boxf = type { %struct.pointf_s, %struct.pointf_s }
%struct.pointf_s = type { double, double }
%struct.Agnodeinfo_t = type { %struct.Agrec_s, ptr, ptr, %struct.pointf_s, double, double, %struct.boxf, double, double, double, double, double, ptr, ptr, ptr, i8, i8, i8, i8, i32, i32, i32, ptr, double, i8, i8, ptr, ptr, i8, i64, i8, i8, i8, ptr, ptr, %struct.elist, %struct.elist, %struct.elist, %struct.elist, %struct.elist, ptr, i32, ptr, i32, i32, double, %struct.elist, %struct.elist, %struct.elist, %struct.elist, ptr, i32, i32, i32, [1 x double] }
%struct.elist = type { ptr, i64 }
%struct.Agedge_s = type { %struct.Agobj_s, %struct.dtlink_s_, %struct.dtlink_s_, ptr }
%struct.dtlink_s_ = type { ptr, %union.anon.0 }
%union.anon.0 = type { ptr }
%struct.Agedgeinfo_t = type { %struct.Agrec_s, ptr, %struct.port, %struct.port, ptr, ptr, ptr, ptr, i8, i8, i8, i8, i8, ptr, ptr, double, double, %struct.Ppoly_t, i8, i8, i16, i32, i32, i32, i16, i32, ptr }
%struct.port = type { %struct.pointf_s, double, ptr, i8, i8, i8, i8, i8, i8, ptr }
%struct.Ppoly_t = type { ptr, i64 }

; Function Attrs: nounwind uwtable
define internal zeroext i1 @is_a_vnode_of_an_edge_of(ptr noundef %0, ptr noundef %1) #0 {
  %3 = alloca i1, align 1
  %4 = alloca ptr, align 8
  %5 = alloca ptr, align 8
  %6 = alloca ptr, align 8
  %7 = alloca i32, align 4
  store ptr %0, ptr %4, align 8, !tbaa !3
  store ptr %1, ptr %5, align 8, !tbaa !41
  %8 = load ptr, ptr %5, align 8, !tbaa !41
  %9 = getelementptr inbounds nuw %struct.Agobj_s, ptr %8, i32 0, i32 1
  %10 = load ptr, ptr %9, align 8, !tbaa !8
  %11 = getelementptr inbounds nuw %struct.Agnodeinfo_t, ptr %10, i32 0, i32 28
  %12 = load i8, ptr %11, align 8, !tbaa !154
  %13 = sext i8 %12 to i32
  %14 = icmp eq i32 %13, 1
  br i1 %14, label %15, label %64

15:                                               ; preds = %2
  %16 = load ptr, ptr %5, align 8, !tbaa !41
  %17 = getelementptr inbounds nuw %struct.Agobj_s, ptr %16, i32 0, i32 1
  %18 = load ptr, ptr %17, align 8, !tbaa !8
  %19 = getelementptr inbounds nuw %struct.Agnodeinfo_t, ptr %18, i32 0, i32 35
  %20 = getelementptr inbounds nuw %struct.elist, ptr %19, i32 0, i32 1
  %21 = load i64, ptr %20, align 8, !tbaa !144
  %22 = icmp eq i64 %21, 1
  br i1 %22, label %23, label %64

23:                                               ; preds = %15
  %24 = load ptr, ptr %5, align 8, !tbaa !41
  %25 = getelementptr inbounds nuw %struct.Agobj_s, ptr %24, i32 0, i32 1
  %26 = load ptr, ptr %25, align 8, !tbaa !8
  %27 = getelementptr inbounds nuw %struct.Agnodeinfo_t, ptr %26, i32 0, i32 36
  %28 = getelementptr inbounds nuw %struct.elist, ptr %27, i32 0, i32 1
  %29 = load i64, ptr %28, align 8, !tbaa !142
  %30 = icmp eq i64 %29, 1
  br i1 %30, label %31, label %64

31:                                               ; preds = %23
  call void @llvm.lifetime.start.p0(i64 8, ptr %6) #15
  %32 = load ptr, ptr %5, align 8, !tbaa !41
  %33 = getelementptr inbounds nuw %struct.Agobj_s, ptr %32, i32 0, i32 1
  %34 = load ptr, ptr %33, align 8, !tbaa !8
  %35 = getelementptr inbounds nuw %struct.Agnodeinfo_t, ptr %34, i32 0, i32 36
  %36 = getelementptr inbounds nuw %struct.elist, ptr %35, i32 0, i32 0
  %37 = load ptr, ptr %36, align 8, !tbaa !50
  %38 = getelementptr inbounds ptr, ptr %37, i64 0
  %39 = load ptr, ptr %38, align 8, !tbaa !49
  store ptr %39, ptr %6, align 8, !tbaa !49
  br label %40

40:                                               ; preds = %48, %31
  %41 = load ptr, ptr %6, align 8, !tbaa !49
  %42 = getelementptr inbounds nuw %struct.Agobj_s, ptr %41, i32 0, i32 1
  %43 = load ptr, ptr %42, align 8, !tbaa !8
  %44 = getelementptr inbounds nuw %struct.Agedgeinfo_t, ptr %43, i32 0, i32 8
  %45 = load i8, ptr %44, align 8, !tbaa !102
  %46 = sext i8 %45 to i32
  %47 = icmp ne i32 %46, 0
  br i1 %47, label %48, label %54

48:                                               ; preds = %40
  %49 = load ptr, ptr %6, align 8, !tbaa !49
  %50 = getelementptr inbounds nuw %struct.Agobj_s, ptr %49, i32 0, i32 1
  %51 = load ptr, ptr %50, align 8, !tbaa !8
  %52 = getelementptr inbounds nuw %struct.Agedgeinfo_t, ptr %51, i32 0, i32 13
  %53 = load ptr, ptr %52, align 8, !tbaa !194
  store ptr %53, ptr %6, align 8, !tbaa !49
  br label %40, !llvm.loop !209

54:                                               ; preds = %40
  %55 = load ptr, ptr %4, align 8, !tbaa !3
  %56 = load ptr, ptr %6, align 8, !tbaa !49
  %57 = call i32 @agcontains(ptr noundef %55, ptr noundef %56)
  %58 = icmp ne i32 %57, 0
  br i1 %58, label %59, label %60

59:                                               ; preds = %54
  store i1 true, ptr %3, align 1
  store i32 1, ptr %7, align 4
  br label %61

60:                                               ; preds = %54
  store i32 0, ptr %7, align 4
  br label %61

61:                                               ; preds = %60, %59
  call void @llvm.lifetime.end.p0(i64 8, ptr %6) #15
  %62 = load i32, ptr %7, align 4
  switch i32 %62, label %67 [
    i32 0, label %63
    i32 1, label %65
  ]

63:                                               ; preds = %61
  br label %64

64:                                               ; preds = %63, %23, %15, %2
  store i1 false, ptr %3, align 1
  br label %65

65:                                               ; preds = %64, %61
  %66 = load i1, ptr %3, align 1
  ret i1 %66

67:                                               ; preds = %61
  unreachable
}

; Function Attrs: nounwind uwtable
define internal zeroext i1 @is_a_normal_node_of(ptr noundef %0, ptr noundef %1) #0 {
  %3 = alloca ptr, align 8
  %4 = alloca ptr, align 8
  store ptr %0, ptr %3, align 8, !tbaa !3
  store ptr %1, ptr %4, align 8, !tbaa !41
  %5 = load ptr, ptr %4, align 8, !tbaa !41
  %6 = getelementptr inbounds nuw %struct.Agobj_s, ptr %5, i32 0, i32 1
  %7 = load ptr, ptr %6, align 8, !tbaa !8
  %8 = getelementptr inbounds nuw %struct.Agnodeinfo_t, ptr %7, i32 0, i32 28
  %9 = load i8, ptr %8, align 8, !tbaa !154
  %10 = sext i8 %9 to i32
  %11 = icmp eq i32 %10, 0
  br i1 %11, label %12, label %17

12:                                               ; preds = %2
  %13 = load ptr, ptr %3, align 8, !tbaa !3
  %14 = load ptr, ptr %4, align 8, !tbaa !41
  %15 = call i32 @agcontains(ptr noundef %13, ptr noundef %14)
  %16 = icmp ne i32 %15, 0
  br label %17

17:                                               ; preds = %12, %2
  %18 = phi i1 [ false, %2 ], [ %16, %12 ]
  ret i1 %18
}

; Function Attrs: nounwind uwtable
define internal zeroext i1 @inside_cluster(ptr noundef %0, ptr noundef %1) #0 {
  %3 = alloca ptr, align 8
  %4 = alloca ptr, align 8
  store ptr %0, ptr %3, align 8, !tbaa !3
  store ptr %1, ptr %4, align 8, !tbaa !41
  %5 = load ptr, ptr %3, align 8, !tbaa !3
  %6 = load ptr, ptr %4, align 8, !tbaa !41
  %7 = call zeroext i1 @is_a_normal_node_of(ptr noundef %5, ptr noundef %6)
  br i1 %7, label %12, label %8

8:                                                ; preds = %2
  %9 = load ptr, ptr %3, align 8, !tbaa !3
  %10 = load ptr, ptr %4, align 8, !tbaa !41
  %11 = call zeroext i1 @is_a_vnode_of_an_edge_of(ptr noundef %9, ptr noundef %10)
  br label %12

12:                                               ; preds = %8, %2
  %13 = phi i1 [ true, %2 ], [ %11, %8 ]
  ret i1 %13
}

; Function Attrs: nounwind uwtable
define internal zeroext i1 @constraining_flat_edge(ptr noundef %0, ptr noundef %1) #0 {
  %3 = alloca i1, align 1
  %4 = alloca ptr, align 8
  %5 = alloca ptr, align 8
  store ptr %0, ptr %4, align 8, !tbaa !3
  store ptr %1, ptr %5, align 8, !tbaa !49
  %6 = load ptr, ptr %5, align 8, !tbaa !49
  %7 = getelementptr inbounds nuw %struct.Agobj_s, ptr %6, i32 0, i32 1
  %8 = load ptr, ptr %7, align 8, !tbaa !8
  %9 = getelementptr inbounds nuw %struct.Agedgeinfo_t, ptr %8, i32 0, i32 21
  %10 = load i32, ptr %9, align 4, !tbaa !153
  %11 = icmp eq i32 %10, 0
  br i1 %11, label %12, label %13

12:                                               ; preds = %2
  store i1 false, ptr %3, align 1
  br label %50

13:                                               ; preds = %2
  %14 = load ptr, ptr %4, align 8, !tbaa !3
  %15 = load ptr, ptr %5, align 8, !tbaa !49
  %16 = getelementptr inbounds nuw %struct.Agobj_s, ptr %15, i32 0, i32 0
  %17 = load i32, ptr %16, align 8
  %18 = and i32 %17, 3
  %19 = icmp eq i32 %18, 3
  br i1 %19, label %20, label %22

20:                                               ; preds = %13
  %21 = load ptr, ptr %5, align 8, !tbaa !49
  br label %25

22:                                               ; preds = %13
  %23 = load ptr, ptr %5, align 8, !tbaa !49
  %24 = getelementptr inbounds %struct.Agedge_s, ptr %23, i64 1
  br label %25

25:                                               ; preds = %22, %20
  %26 = phi ptr [ %21, %20 ], [ %24, %22 ]
  %27 = getelementptr inbounds nuw %struct.Agedge_s, ptr %26, i32 0, i32 3
  %28 = load ptr, ptr %27, align 8, !tbaa !51
  %29 = call zeroext i1 @inside_cluster(ptr noundef %14, ptr noundef %28)
  br i1 %29, label %31, label %30

30:                                               ; preds = %25
  store i1 false, ptr %3, align 1
  br label %50

31:                                               ; preds = %25
  %32 = load ptr, ptr %4, align 8, !tbaa !3
  %33 = load ptr, ptr %5, align 8, !tbaa !49
  %34 = getelementptr inbounds nuw %struct.Agobj_s, ptr %33, i32 0, i32 0
  %35 = load i32, ptr %34, align 8
  %36 = and i32 %35, 3
  %37 = icmp eq i32 %36, 2
  br i1 %37, label %38, label %40

38:                                               ; preds = %31
  %39 = load ptr, ptr %5, align 8, !tbaa !49
  br label %43

40:                                               ; preds = %31
  %41 = load ptr, ptr %5, align 8, !tbaa !49
  %42 = getelementptr inbounds %struct.Agedge_s, ptr %41, i64 -1
  br label %43

43:                                               ; preds = %40, %38
  %44 = phi ptr [ %39, %38 ], [ %42, %40 ]
  %45 = getelementptr inbounds nuw %struct.Agedge_s, ptr %44, i32 0, i32 3
  %46 = load ptr, ptr %45, align 8, !tbaa !51
  %47 = call zeroext i1 @inside_cluster(ptr noundef %32, ptr noundef %46)
  br i1 %47, label %49, label %48

48:                                               ; preds = %43
  store i1 false, ptr %3, align 1
  br label %50

49:                                               ; preds = %43
  store i1 true, ptr %3, align 1
  br label %50

50:                                               ; preds = %49, %48, %30, %12
  %51 = load i1, ptr %3, align 1
  ret i1 %51
}