; Function Attrs: nounwind uwtable
define internal fastcc noundef zeroext i1 @constraining_flat_edge(ptr noundef %0, ptr noundef readonly captures(none) %1) unnamed_addr #0 {
  %3 = getelementptr inbounds nuw i8, ptr %1, i64 16
  %4 = load ptr, ptr %3, align 8, !tbaa !3
  %5 = getelementptr inbounds nuw i8, ptr %4, i64 212
  %6 = load i32, ptr %5, align 4, !tbaa !202
  %7 = icmp eq i32 %6, 0
  br i1 %7, label %inside_cluster.exit, label %8

8:                                                ; preds = %2
  %9 = load i32, ptr %1, align 8
  %10 = and i32 %9, 3
  %11 = icmp eq i32 %10, 3
  %.idx = select i1 %11, i64 0, i64 64
  %12 = getelementptr inbounds nuw i8, ptr %1, i64 %.idx
  %13 = getelementptr inbounds nuw i8, ptr %12, i64 56
  %14 = load ptr, ptr %13, align 8, !tbaa !51
  %15 = getelementptr inbounds nuw i8, ptr %14, i64 16
  %16 = load ptr, ptr %15, align 8, !tbaa !3
  %17 = getelementptr inbounds nuw i8, ptr %16, i64 216
  %18 = load i8, ptr %17, align 8, !tbaa !137
  %19 = icmp eq i8 %18, 0
  br i1 %19, label %is_a_normal_node_of.exit.i, label %is_a_normal_node_of.exit.thread.i

is_a_normal_node_of.exit.i:                       ; preds = %8
  %20 = tail call i32 @agcontains(ptr noundef %0, ptr noundef nonnull %14) #23
  %.not.i = icmp eq i32 %20, 0
  br i1 %.not.i, label %is_a_normal_node_of.exit.is_a_normal_node_of.exit.thread_crit_edge.i, label %42

is_a_normal_node_of.exit.is_a_normal_node_of.exit.thread_crit_edge.i: ; preds = %is_a_normal_node_of.exit.i
  %.val.pre.i = load ptr, ptr %15, align 8, !tbaa !3
  %.phi.trans.insert.i = getelementptr inbounds nuw i8, ptr %.val.pre.i, i64 216
  %.pre.i = load i8, ptr %.phi.trans.insert.i, align 8, !tbaa !137
  br label %is_a_normal_node_of.exit.thread.i

is_a_normal_node_of.exit.thread.i:                ; preds = %is_a_normal_node_of.exit.is_a_normal_node_of.exit.thread_crit_edge.i, %8
  %21 = phi i8 [ %.pre.i, %is_a_normal_node_of.exit.is_a_normal_node_of.exit.thread_crit_edge.i ], [ %18, %8 ]
  %.val.i = phi ptr [ %.val.pre.i, %is_a_normal_node_of.exit.is_a_normal_node_of.exit.thread_crit_edge.i ], [ %16, %8 ]
  %22 = icmp eq i8 %21, 1
  br i1 %22, label %23, label %inside_cluster.exit

23:                                               ; preds = %is_a_normal_node_of.exit.thread.i
  %24 = getelementptr inbounds nuw i8, ptr %.val.i, i64 264
  %25 = load i64, ptr %24, align 8, !tbaa !127
  %26 = icmp eq i64 %25, 1
  br i1 %26, label %27, label %inside_cluster.exit

27:                                               ; preds = %23
  %28 = getelementptr inbounds nuw i8, ptr %.val.i, i64 280
  %29 = load i64, ptr %28, align 8, !tbaa !126
  %30 = icmp eq i64 %29, 1
  br i1 %30, label %31, label %inside_cluster.exit

31:                                               ; preds = %27
  %32 = getelementptr inbounds nuw i8, ptr %.val.i, i64 272
  %33 = load ptr, ptr %32, align 8, !tbaa !49
  br label %34

34:                                               ; preds = %34, %31
  %.09.in.i.i = phi ptr [ %33, %31 ], [ %39, %34 ]
  %.09.i.i = load ptr, ptr %.09.in.i.i, align 8, !tbaa !50
  %35 = getelementptr inbounds nuw i8, ptr %.09.i.i, i64 16
  %36 = load ptr, ptr %35, align 8, !tbaa !3
  %37 = getelementptr inbounds nuw i8, ptr %36, i64 152
  %38 = load i8, ptr %37, align 8, !tbaa !98
  %.not.i.i = icmp eq i8 %38, 0
  %39 = getelementptr inbounds nuw i8, ptr %36, i64 160
  br i1 %.not.i.i, label %40, label %34, !llvm.loop !152

40:                                               ; preds = %34
  %41 = tail call i32 @agcontains(ptr noundef %0, ptr noundef nonnull %.09.i.i) #23
  %.not11.not.i.i = icmp eq i32 %41, 0
  br i1 %.not11.not.i.i, label %inside_cluster.exit, label %42

42:                                               ; preds = %is_a_normal_node_of.exit.i, %40
  %43 = load i32, ptr %1, align 8
  %44 = and i32 %43, 3
  %45 = icmp eq i32 %44, 2
  %.idx10 = select i1 %45, i64 0, i64 -64
  %46 = getelementptr inbounds i8, ptr %1, i64 %.idx10
  %47 = getelementptr inbounds nuw i8, ptr %46, i64 56
  %48 = load ptr, ptr %47, align 8, !tbaa !51
  %49 = getelementptr inbounds nuw i8, ptr %48, i64 16
  %50 = load ptr, ptr %49, align 8, !tbaa !3
  %51 = getelementptr inbounds nuw i8, ptr %50, i64 216
  %52 = load i8, ptr %51, align 8, !tbaa !137
  %53 = icmp eq i8 %52, 0
  br i1 %53, label %is_a_normal_node_of.exit.i17, label %is_a_normal_node_of.exit.thread.i11

is_a_normal_node_of.exit.i17:                     ; preds = %42
  %54 = tail call i32 @agcontains(ptr noundef %0, ptr noundef nonnull %48) #23
  %.not.i18 = icmp eq i32 %54, 0
  br i1 %.not.i18, label %is_a_normal_node_of.exit.is_a_normal_node_of.exit.thread_crit_edge.i19, label %inside_cluster.exit

is_a_normal_node_of.exit.is_a_normal_node_of.exit.thread_crit_edge.i19: ; preds = %is_a_normal_node_of.exit.i17
  %.val.pre.i20 = load ptr, ptr %49, align 8, !tbaa !3
  %.phi.trans.insert.i21 = getelementptr inbounds nuw i8, ptr %.val.pre.i20, i64 216
  %.pre.i22 = load i8, ptr %.phi.trans.insert.i21, align 8, !tbaa !137
  br label %is_a_normal_node_of.exit.thread.i11

is_a_normal_node_of.exit.thread.i11:              ; preds = %is_a_normal_node_of.exit.is_a_normal_node_of.exit.thread_crit_edge.i19, %42
  %55 = phi i8 [ %.pre.i22, %is_a_normal_node_of.exit.is_a_normal_node_of.exit.thread_crit_edge.i19 ], [ %52, %42 ]
  %.val.i12 = phi ptr [ %.val.pre.i20, %is_a_normal_node_of.exit.is_a_normal_node_of.exit.thread_crit_edge.i19 ], [ %50, %42 ]
  %56 = icmp eq i8 %55, 1
  br i1 %56, label %57, label %76

57:                                               ; preds = %is_a_normal_node_of.exit.thread.i11
  %58 = getelementptr inbounds nuw i8, ptr %.val.i12, i64 264
  %59 = load i64, ptr %58, align 8, !tbaa !127
  %60 = icmp eq i64 %59, 1
  br i1 %60, label %61, label %76

61:                                               ; preds = %57
  %62 = getelementptr inbounds nuw i8, ptr %.val.i12, i64 280
  %63 = load i64, ptr %62, align 8, !tbaa !126
  %64 = icmp eq i64 %63, 1
  br i1 %64, label %65, label %76

65:                                               ; preds = %61
  %66 = getelementptr inbounds nuw i8, ptr %.val.i12, i64 272
  %67 = load ptr, ptr %66, align 8, !tbaa !49
  br label %68

68:                                               ; preds = %68, %65
  %.09.in.i.i13 = phi ptr [ %67, %65 ], [ %73, %68 ]
  %.09.i.i14 = load ptr, ptr %.09.in.i.i13, align 8, !tbaa !50
  %69 = getelementptr inbounds nuw i8, ptr %.09.i.i14, i64 16
  %70 = load ptr, ptr %69, align 8, !tbaa !3
  %71 = getelementptr inbounds nuw i8, ptr %70, i64 152
  %72 = load i8, ptr %71, align 8, !tbaa !98
  %.not.i.i15 = icmp eq i8 %72, 0
  %73 = getelementptr inbounds nuw i8, ptr %70, i64 160
  br i1 %.not.i.i15, label %74, label %68, !llvm.loop !152

74:                                               ; preds = %68
  %75 = tail call i32 @agcontains(ptr noundef %0, ptr noundef nonnull %.09.i.i14) #23
  %.not11.not.i.i16 = icmp eq i32 %75, 0
  br i1 %.not11.not.i.i16, label %76, label %inside_cluster.exit

76:                                               ; preds = %74, %61, %57, %is_a_normal_node_of.exit.thread.i11
  br label %inside_cluster.exit

inside_cluster.exit:                              ; preds = %76, %74, %is_a_normal_node_of.exit.i17, %40, %27, %23, %is_a_normal_node_of.exit.thread.i, %2
  %.0 = phi i1 [ false, %2 ], [ false, %is_a_normal_node_of.exit.thread.i ], [ false, %23 ], [ false, %27 ], [ false, %40 ], [ true, %is_a_normal_node_of.exit.i17 ], [ true, %74 ], [ false, %76 ]
  ret i1 %.0
}